; Function Attrs: mustprogress uwtable
define void @_ZNK8facebook5velox16InMemoryReadFile5preadB5cxx11Emm(ptr noalias sret(%"class.std::__cxx11::basic_string") align 8 %agg.result, ptr nocapture noundef nonnull align 8 dereferenceable(65) %this, i64 noundef %offset, i64 noundef %length) unnamed_addr #0 align 2 personality ptr @__gxx_personality_v0 {
entry:
  %ref.tmp = alloca %"class.std::allocator", align 1
  %bytesRead_ = getelementptr inbounds i8, ptr %this, i64 8
  %0 = atomicrmw add ptr %bytesRead_, i64 %length seq_cst, align 8
  %_M_str.i = getelementptr inbounds i8, ptr %this, i64 56
  %1 = load ptr, ptr %_M_str.i, align 8
  %add.ptr = getelementptr inbounds i8, ptr %1, i64 %offset
  call void @_ZNSaIcEC1Ev(ptr noundef nonnull align 1 dereferenceable(1) %ref.tmp) #11
  invoke void @_ZNSt7__cxx1112basic_stringIcSt11char_traitsIcESaIcEEC1EPKcmRKS3_(ptr noundef nonnull align 8 dereferenceable(32) %agg.result, ptr noundef %add.ptr, i64 noundef %length, ptr noundef nonnull align 1 dereferenceable(1) %ref.tmp)
          to label %invoke.cont unwind label %lpad

invoke.cont:                                      ; preds = %entry
  call void @_ZNSaIcED1Ev(ptr noundef nonnull align 1 dereferenceable(1) %ref.tmp) #11
  ret void

lpad:                                             ; preds = %entry
  %2 = landingpad { ptr, i32 }
          cleanup
  call void @_ZNSaIcED1Ev(ptr noundef nonnull align 1 dereferenceable(1) %ref.tmp) #11
  resume { ptr, i32 } %2
}